target datalayout = "e-m:e-p270:32:32-p271:32:32-p272:64:64-i64:64-i128:128-f80:128-n8:16:32:64-S128"
target triple = "x86_64-pc-linux-gnu"

; Function Attrs: nounwind uwtable
define internal void @skip_prefix(ptr noundef %0, ptr noundef %1, i64 noundef %2, i32 noundef %3) #0 {
  %5 = alloca ptr, align 8
  %6 = alloca ptr, align 8
  %7 = alloca i64, align 8
  %8 = alloca i32, align 4
  %9 = alloca ptr, align 8
  %10 = alloca i64, align 8
  %11 = alloca i32, align 4
  store ptr %0, ptr %5, align 8, !tbaa !71
  store ptr %1, ptr %6, align 8, !tbaa !93
  store i64 %2, ptr %7, align 8, !tbaa !10
  store i32 %3, ptr %8, align 4, !tbaa !15
  call void @llvm.lifetime.start.p0(i64 8, ptr %9) #8
  %12 = load ptr, ptr %5, align 8, !tbaa !71
  %13 = load ptr, ptr %12, align 8, !tbaa !3
  store ptr %13, ptr %9, align 8, !tbaa !3
  call void @llvm.lifetime.start.p0(i64 8, ptr %10) #8
  %14 = load ptr, ptr %6, align 8, !tbaa !93
  %15 = load i64, ptr %14, align 8, !tbaa !10
  store i64 %15, ptr %10, align 8, !tbaa !10
  %16 = load i32, ptr %8, align 4, !tbaa !15
  %17 = and i32 %16, 32768
  %18 = icmp eq i32 %17, 0
  br i1 %18, label %19, label %20

19:                                               ; preds = %4
  store i32 1, ptr %11, align 4
  br label %57

20:                                               ; preds = %4
  br label %21

21:                                               ; preds = %42, %20
  %22 = load i64, ptr %10, align 8, !tbaa !10
  %23 = load i64, ptr %7, align 8, !tbaa !10
  %24 = icmp ugt i64 %22, %23
  br i1 %24, label %25, label %30

25:                                               ; preds = %21
  %26 = load ptr, ptr %9, align 8, !tbaa !3
  %27 = load i8, ptr %26, align 1, !tbaa !27
  %28 = zext i8 %27 to i32
  %29 = icmp ne i32 %28, 0
  br label %30

30:                                               ; preds = %25, %21
  %31 = phi i1 [ false, %21 ], [ %29, %25 ]
  br i1 %31, label %32, label %47

32:                                               ; preds = %30
  %33 = load i32, ptr %8, align 4, !tbaa !15
  %34 = and i32 %33, 16
  %35 = icmp ne i32 %34, 0
  br i1 %35, label %36, label %42

36:                                               ; preds = %32
  %37 = load ptr, ptr %9, align 8, !tbaa !3
  %38 = load i8, ptr %37, align 1, !tbaa !27
  %39 = zext i8 %38 to i32
  %40 = icmp eq i32 %39, 46
  br i1 %40, label %41, label %42

41:                                               ; preds = %36
  br label %47

42:                                               ; preds = %36, %32
  %43 = load ptr, ptr %9, align 8, !tbaa !3
  %44 = getelementptr inbounds nuw i8, ptr %43, i32 1
  store ptr %44, ptr %9, align 8, !tbaa !3
  %45 = load i64, ptr %10, align 8, !tbaa !10
  %46 = add i64 %45, -1
  store i64 %46, ptr %10, align 8, !tbaa !10
  br label %21, !llvm.loop !95

47:                                               ; preds = %41, %30
  %48 = load i64, ptr %10, align 8, !tbaa !10
  %49 = load i64, ptr %7, align 8, !tbaa !10
  %50 = icmp eq i64 %48, %49
  br i1 %50, label %51, label %56

51:                                               ; preds = %47
  %52 = load ptr, ptr %9, align 8, !tbaa !3
  %53 = load ptr, ptr %5, align 8, !tbaa !71
  store ptr %52, ptr %53, align 8, !tbaa !3
  %54 = load i64, ptr %10, align 8, !tbaa !10
  %55 = load ptr, ptr %6, align 8, !tbaa !93
  store i64 %54, ptr %55, align 8, !tbaa !10
  br label %56

56:                                               ; preds = %51, %47
  store i32 0, ptr %11, align 4
  br label %57

57:                                               ; preds = %56, %19
  call void @llvm.lifetime.end.p0(i64 8, ptr %10) #8
  call void @llvm.lifetime.end.p0(i64 8, ptr %9) #8
  %58 = load i32, ptr %11, align 4
  switch i32 %58, label %60 [
    i32 0, label %59
    i32 1, label %59
  ]

59:                                               ; preds = %57, %57
  ret void

60:                                               ; preds = %57
  unreachable
}

; Function Attrs: nounwind uwtable
define internal i32 @equal_nocase(ptr noundef %0, i64 noundef %1, ptr noundef %2, i64 noundef %3, i32 noundef %4) #0 {
  %6 = alloca i32, align 4
  %7 = alloca ptr, align 8
  %8 = alloca i64, align 8
  %9 = alloca ptr, align 8
  %10 = alloca i64, align 8
  %11 = alloca i32, align 4
  %12 = alloca i8, align 1
  %13 = alloca i8, align 1
  %14 = alloca i32, align 4
  store ptr %0, ptr %7, align 8, !tbaa !3
  store i64 %1, ptr %8, align 8, !tbaa !10
  store ptr %2, ptr %9, align 8, !tbaa !3
  store i64 %3, ptr %10, align 8, !tbaa !10
  store i32 %4, ptr %11, align 4, !tbaa !15
  %15 = load i64, ptr %10, align 8, !tbaa !10
  %16 = load i32, ptr %11, align 4, !tbaa !15
  call void @skip_prefix(ptr noundef %7, ptr noundef %8, i64 noundef %15, i32 noundef %16)
  %17 = load i64, ptr %8, align 8, !tbaa !10
  %18 = load i64, ptr %10, align 8, !tbaa !10
  %19 = icmp ne i64 %17, %18
  br i1 %19, label %20, label %21

20:                                               ; preds = %5
  store i32 0, ptr %6, align 4
  br label %87

21:                                               ; preds = %5
  br label %22

22:                                               ; preds = %85, %21
  %23 = load i64, ptr %8, align 8, !tbaa !10
  %24 = icmp ne i64 %23, 0
  br i1 %24, label %25, label %86

25:                                               ; preds = %22
  call void @llvm.lifetime.start.p0(i64 1, ptr %12) #8
  %26 = load ptr, ptr %7, align 8, !tbaa !3
  %27 = load i8, ptr %26, align 1, !tbaa !27
  store i8 %27, ptr %12, align 1, !tbaa !27
  call void @llvm.lifetime.start.p0(i64 1, ptr %13) #8
  %28 = load ptr, ptr %9, align 8, !tbaa !3
  %29 = load i8, ptr %28, align 1, !tbaa !27
  store i8 %29, ptr %13, align 1, !tbaa !27
  %30 = load i8, ptr %12, align 1, !tbaa !27
  %31 = zext i8 %30 to i32
  %32 = icmp eq i32 %31, 0
  br i1 %32, label %33, label %34

33:                                               ; preds = %25
  store i32 0, ptr %6, align 4
  store i32 1, ptr %14, align 4
  br label %83

34:                                               ; preds = %25
  %35 = load i8, ptr %12, align 1, !tbaa !27
  %36 = zext i8 %35 to i32
  %37 = load i8, ptr %13, align 1, !tbaa !27
  %38 = zext i8 %37 to i32
  %39 = icmp ne i32 %36, %38
  br i1 %39, label %40, label %76

40:                                               ; preds = %34
  %41 = load i8, ptr %12, align 1, !tbaa !27
  %42 = zext i8 %41 to i32
  %43 = icmp sle i32 65, %42
  br i1 %43, label %44, label %54

44:                                               ; preds = %40
  %45 = load i8, ptr %12, align 1, !tbaa !27
  %46 = zext i8 %45 to i32
  %47 = icmp sle i32 %46, 90
  br i1 %47, label %48, label %54

48:                                               ; preds = %44
  %49 = load i8, ptr %12, align 1, !tbaa !27
  %50 = zext i8 %49 to i32
  %51 = sub nsw i32 %50, 65
  %52 = add nsw i32 %51, 97
  %53 = trunc i32 %52 to i8
  store i8 %53, ptr %12, align 1, !tbaa !27
  br label %54

54:                                               ; preds = %48, %44, %40
  %55 = load i8, ptr %13, align 1, !tbaa !27
  %56 = zext i8 %55 to i32
  %57 = icmp sle i32 65, %56
  br i1 %57, label %58, label %68

58:                                               ; preds = %54
  %59 = load i8, ptr %13, align 1, !tbaa !27
  %60 = zext i8 %59 to i32
  %61 = icmp sle i32 %60, 90
  br i1 %61, label %62, label %68

62:                                               ; preds = %58
  %63 = load i8, ptr %13, align 1, !tbaa !27
  %64 = zext i8 %63 to i32
  %65 = sub nsw i32 %64, 65
  %66 = add nsw i32 %65, 97
  %67 = trunc i32 %66 to i8
  store i8 %67, ptr %13, align 1, !tbaa !27
  br label %68

68:                                               ; preds = %62, %58, %54
  %69 = load i8, ptr %12, align 1, !tbaa !27
  %70 = zext i8 %69 to i32
  %71 = load i8, ptr %13, align 1, !tbaa !27
  %72 = zext i8 %71 to i32
  %73 = icmp ne i32 %70, %72
  br i1 %73, label %74, label %75

74:                                               ; preds = %68
  store i32 0, ptr %6, align 4
  store i32 1, ptr %14, align 4
  br label %83

75:                                               ; preds = %68
  br label %76

76:                                               ; preds = %75, %34
  %77 = load ptr, ptr %7, align 8, !tbaa !3
  %78 = getelementptr inbounds nuw i8, ptr %77, i32 1
  store ptr %78, ptr %7, align 8, !tbaa !3
  %79 = load ptr, ptr %9, align 8, !tbaa !3
  %80 = getelementptr inbounds nuw i8, ptr %79, i32 1
  store ptr %80, ptr %9, align 8, !tbaa !3
  %81 = load i64, ptr %8, align 8, !tbaa !10
  %82 = add i64 %81, -1
  store i64 %82, ptr %8, align 8, !tbaa !10
  store i32 0, ptr %14, align 4
  br label %83

83:                                               ; preds = %76, %74, %33
  call void @llvm.lifetime.end.p0(i64 1, ptr %13) #8
  call void @llvm.lifetime.end.p0(i64 1, ptr %12) #8
  %84 = load i32, ptr %14, align 4
  switch i32 %84, label %89 [
    i32 0, label %85
    i32 1, label %87
  ]

85:                                               ; preds = %83
  br label %22, !llvm.loop !92

86:                                               ; preds = %22
  store i32 1, ptr %6, align 4
  br label %87

87:                                               ; preds = %86, %83, %20
  %88 = load i32, ptr %6, align 4
  ret i32 %88

89:                                               ; preds = %83
  unreachable
}