; Function Attrs: nofree norecurse nosync nounwind memory(read, inaccessiblemem: none) uwtable
define internal range(i32 0, 2) i32 @equal_nocase(ptr noundef readonly captures(none) %0, i64 noundef %1, ptr noundef readonly captures(none) %2, i64 noundef %3, i32 noundef %4) #7 {
  %6 = and i32 %4, 32768
  %7 = icmp eq i32 %6, 0
  br i1 %7, label %skip_prefix.exit, label %.preheader.i

.preheader.i:                                     ; preds = %5
  %8 = icmp ugt i64 %1, %3
  br i1 %8, label %.lr.ph.i, label %.critedge.i

.lr.ph.i:                                         ; preds = %.preheader.i
  %9 = and i32 %4, 16
  %.not17.not.i = icmp eq i32 %9, 0
  %10 = sub nuw i64 %1, %3
  %scevgep33.i = getelementptr i8, ptr %0, i64 %10
  br i1 %.not17.not.i, label %.lr.ph.split.us.i, label %.lr.ph.split.i

.lr.ph.split.us.i:                                ; preds = %.lr.ph.i, %12
  %.019.us.i = phi i64 [ %14, %12 ], [ %1, %.lr.ph.i ]
  %.01518.us.i = phi ptr [ %13, %12 ], [ %0, %.lr.ph.i ]
  %11 = load i8, ptr %.01518.us.i, align 1, !tbaa !13
  %.not.us.i = icmp eq i8 %11, 0
  br i1 %.not.us.i, label %.critedge.i, label %12

12:                                               ; preds = %.lr.ph.split.us.i
  %13 = getelementptr inbounds nuw i8, ptr %.01518.us.i, i64 1
  %14 = add i64 %.019.us.i, -1
  %15 = icmp ugt i64 %14, %3
  br i1 %15, label %.lr.ph.split.us.i, label %.preheader, !llvm.loop !60

.lr.ph.split.i:                                   ; preds = %.lr.ph.i, %17
  %.019.i = phi i64 [ %19, %17 ], [ %1, %.lr.ph.i ]
  %.01518.i = phi ptr [ %18, %17 ], [ %0, %.lr.ph.i ]
  %16 = load i8, ptr %.01518.i, align 1, !tbaa !13
  switch i8 %16, label %17 [
    i8 0, label %.critedge.i
    i8 46, label %.critedge.i
  ]

17:                                               ; preds = %.lr.ph.split.i
  %18 = getelementptr inbounds nuw i8, ptr %.01518.i, i64 1
  %19 = add i64 %.019.i, -1
  %20 = icmp ugt i64 %19, %3
  br i1 %20, label %.lr.ph.split.i, label %.preheader, !llvm.loop !60

.critedge.i:                                      ; preds = %.lr.ph.split.i, %.lr.ph.split.i, %.lr.ph.split.us.i, %.preheader.i
  %.015.lcssa.i = phi ptr [ %0, %.preheader.i ], [ %.01518.us.i, %.lr.ph.split.us.i ], [ %.01518.i, %.lr.ph.split.i ], [ %.01518.i, %.lr.ph.split.i ]
  %.0.lcssa.i = phi i64 [ %1, %.preheader.i ], [ %.019.us.i, %.lr.ph.split.us.i ], [ %.019.i, %.lr.ph.split.i ], [ %.019.i, %.lr.ph.split.i ]
  %21 = icmp eq i64 %.0.lcssa.i, %3
  %spec.select46 = select i1 %21, ptr %.015.lcssa.i, ptr %0
  %spec.select47 = select i1 %21, i64 %3, i64 %1
  br label %skip_prefix.exit

skip_prefix.exit:                                 ; preds = %.critedge.i, %5
  %.240 = phi ptr [ %0, %5 ], [ %spec.select46, %.critedge.i ]
  %.2 = phi i64 [ %1, %5 ], [ %spec.select47, %.critedge.i ]
  %.not = icmp eq i64 %.2, %3
  br i1 %.not, label %.preheader, label %.thread

.preheader:                                       ; preds = %17, %12, %skip_prefix.exit
  %.24071 = phi ptr [ %.240, %skip_prefix.exit ], [ %scevgep33.i, %12 ], [ %scevgep33.i, %17 ]
  %.not2954 = icmp eq i64 %3, 0
  br i1 %.not2954, label %.thread, label %.lr.ph

.lr.ph:                                           ; preds = %.preheader, %31
  %.02557 = phi ptr [ %33, %31 ], [ %2, %.preheader ]
  %.03756 = phi i64 [ %34, %31 ], [ %3, %.preheader ]
  %.03855 = phi ptr [ %32, %31 ], [ %.24071, %.preheader ]
  %22 = load i8, ptr %.03855, align 1, !tbaa !13
  %23 = load i8, ptr %.02557, align 1, !tbaa !13
  %24 = icmp eq i8 %22, 0
  br i1 %24, label %.thread, label %25

25:                                               ; preds = %.lr.ph
  %.not30 = icmp eq i8 %22, %23
  br i1 %.not30, label %31, label %26

26:                                               ; preds = %25
  %27 = add i8 %22, -65
  %or.cond = icmp ult i8 %27, 26
  %28 = or disjoint i8 %22, 32
  %spec.select = select i1 %or.cond, i8 %28, i8 %22
  %29 = add i8 %23, -65
  %or.cond5 = icmp ult i8 %29, 26
  %30 = or disjoint i8 %23, 32
  %.022 = select i1 %or.cond5, i8 %30, i8 %23
  %.not31 = icmp eq i8 %spec.select, %.022
  br i1 %.not31, label %31, label %.thread

31:                                               ; preds = %25, %26
  %32 = getelementptr inbounds nuw i8, ptr %.03855, i64 1
  %33 = getelementptr inbounds nuw i8, ptr %.02557, i64 1
  %34 = add i64 %.03756, -1
  %.not29 = icmp eq i64 %34, 0
  br i1 %.not29, label %.thread, label %.lr.ph

.thread:                                          ; preds = %31, %.lr.ph, %26, %.preheader, %skip_prefix.exit
  %.024 = phi i32 [ 0, %skip_prefix.exit ], [ 1, %.preheader ], [ 1, %31 ], [ 0, %.lr.ph ], [ 0, %26 ]
  ret i32 %.024
}